Certificate:
    Data:
        Version: 3 (0x2)
        Serial Number: 2 (0x2)
        Signature Algorithm: sha256WithRSAEncryption
        Issuer: CN=wgxMacProCA
        Validity
            Not Before: Sep 24 03:59:07 2016 GMT
            Not After : Sep 22 03:59:07 2026 GMT
        Subject: CN=PublicIpCentos7
        Subject Public Key Info:
            Public Key Algorithm: rsaEncryption
            RSA Public Key: (2048 bit)
                Modulus (2048 bit):
                    00:ba:5e:ed:73:3c:fd:04:61:6a:0b:b3:fc:87:24:
                    da:6c:9b:ae:d3:b8:cc:82:38:c8:49:7c:0a:e2:17:
                    3e:b1:ac:28:aa:7d:3c:27:54:82:e9:f4:c5:57:29:
                    04:d1:01:dc:fd:f6:f1:79:e0:c5:76:91:64:f2:cb:
                    48:cf:0f:7b:da:ff:db:a7:1a:e4:09:e1:a6:bb:18:
                    82:d0:15:7a:23:40:8f:7a:ce:6a:27:a6:7e:14:eb:
                    e6:c8:7c:8c:26:3f:f7:e9:43:e1:60:e2:60:9d:81:
                    97:94:91:86:22:2c:69:81:ef:25:93:da:6f:e8:08:
                    9b:20:71:f8:36:b2:a4:01:18:08:4d:08:bb:d4:9f:
                    0e:90:c7:c6:e3:32:31:81:0a:d3:14:82:07:f1:f2:
                    ce:c6:1e:a7:9e:b3:30:54:66:cb:9b:6c:c5:75:02:
                    62:da:52:41:94:31:70:bf:be:ed:f1:67:34:50:7a:
                    e1:c9:2f:4f:3b:40:dd:34:84:dd:7f:73:0e:a0:4c:
                    90:ab:53:87:86:7a:0c:cf:31:21:14:60:1e:72:f4:
                    8b:ef:84:0f:63:e6:e5:67:18:c6:e2:b8:06:23:88:
                    d4:99:4a:90:53:cc:3b:ec:8b:e4:ed:00:40:db:72:
                    2a:b1:07:4d:2a:71:6b:17:f3:5b:22:29:22:17:ee:
                    46:57
                Exponent: 65537 (0x10001)
        X509v3 extensions:
            X509v3 Basic Constraints: 
                CA:FALSE
            X509v3 Subject Key Identifier: 
                1D:03:3C:E1:A9:7F:8F:8A:CA:CD:F1:29:CC:A8:71:3F:64:4A:F3:AD
            X509v3 Authority Key Identifier: 
                keyid:A2:37:6E:A1:AF:0F:85:94:AB:48:9C:70:BB:F7:25:50:64:55:25:27
                DirName:/CN=wgxMacProCA
                serial:C5:40:3E:2A:67:42:36:10

            X509v3 Extended Key Usage: 
                TLS Web Server Authentication
            X509v3 Key Usage: 
                Digital Signature, Key Encipherment
    Signature Algorithm: sha256WithRSAEncryption
        75:3b:39:79:7b:16:cf:92:99:b7:a2:dd:70:77:de:79:b4:db:
        18:a5:37:e8:e6:96:da:7c:32:d2:b1:6b:ad:94:96:44:f9:85:
        15:fd:ca:40:20:33:d4:3b:6f:01:10:89:27:88:bd:b7:39:d6:
        42:a3:13:da:2f:0a:a4:2a:bf:7a:cb:1c:72:5e:78:59:43:92:
        49:a7:11:1c:26:c5:53:3e:79:be:30:26:87:3c:6f:0d:ca:f4:
        45:83:df:dd:0a:f0:ee:cd:34:04:1b:26:98:42:c3:0b:aa:ed:
        9c:03:65:61:ec:24:03:17:33:7f:50:e1:a1:bc:3b:65:77:fd:
        18:5d:90:bf:9d:bf:ea:fd:51:7e:5c:10:e1:d6:e0:a7:d4:f5:
        9e:03:89:ac:64:43:45:8d:d9:8c:19:04:a0:85:8b:51:da:c8:
        aa:bf:a3:53:76:fd:9a:96:0a:1b:4a:3a:59:41:9a:41:15:77:
        4b:54:0e:00:3c:b8:b6:6b:a3:e8:26:95:7e:81:6b:8d:ce:01:
        66:ae:2b:40:8d:85:bb:95:a1:9e:84:08:09:1c:44:33:67:0b:
        18:11:4e:15:b2:ee:58:42:fc:01:36:68:87:7b:b7:c8:38:8d:
        6e:ab:df:04:07:dd:6c:07:83:2c:87:b4:56:81:b0:37:51:98:
        08:73:76:42
-----BEGIN CERTIFICATE-----
MIIDQzCCAiugAwIBAgIBAjANBgkqhkiG9w0BAQsFADAWMRQwEgYDVQQDDAt3Z3hN
YWNQcm9DQTAeFw0xNjA5MjQwMzU5MDdaFw0yNjA5MjIwMzU5MDdaMBoxGDAWBgNV
BAMTD1B1YmxpY0lwQ2VudG9zNzCCASIwDQYJKoZIhvcNAQEBBQADggEPADCCAQoC
ggEBALpe7XM8/QRhaguz/Ick2mybrtO4zII4yEl8CuIXPrGsKKp9PCdUgun0xVcp
BNEB3P328XngxXaRZPLLSM8Pe9r/26ca5AnhprsYgtAVeiNAj3rOaiemfhTr5sh8
jCY/9+lD4WDiYJ2Bl5SRhiIsaYHvJZPab+gImyBx+DaypAEYCE0Iu9SfDpDHxuMy
MYEK0xSCB/HyzsYep56zMFRmy5tsxXUCYtpSQZQxcL++7fFnNFB64ckvTztA3TSE
3X9zDqBMkKtTh4Z6DM8xIRRgHnL0i++ED2Pm5WcYxuK4BiOI1JlKkFPMO+yL5O0A
QNtyKrEHTSpxaxfzWyIpIhfuRlcCAwEAAaOBlzCBlDAJBgNVHRMEAjAAMB0GA1Ud
DgQWBBQdAzzhqX+PisrN8SnMqHE/ZErzrTBGBgNVHSMEPzA9gBSiN26hrw+FlKtI
nHC79yVQZFUlJ6EapBgwFjEUMBIGA1UEAwwLd2d4TWFjUHJvQ0GCCQDFQD4qZ0I2
EDATBgNVHSUEDDAKBggrBgEFBQcDATALBgNVHQ8EBAMCBaAwDQYJKoZIhvcNAQEL
BQADggEBAHU7OXl7Fs+Smbei3XB33nm02xilN+jmltp8MtKxa62UlkT5hRX9ykAg
M9Q7bwEQiSeIvbc51kKjE9ovCqQqv3rLHHJeeFlDkkmnERwmxVM+eb4wJoc8bw3K
9EWD390K8O7NNAQbJphCwwuq7ZwDZWHsJAMXM39Q4aG8O2V3/RhdkL+dv+r9UX5c
EOHW4KfU9Z4DiaxkQ0WN2YwZBKCFi1HayKq/o1N2/ZqWChtKOllBmkEVd0tUDgA8
uLZro+gmlX6Ba43OAWauK0CNhbuVoZ6ECAkcRDNnCxgRThWy7lhC/AE2aId7t8g4
jW6r3wQH3WwHgyyHtFaBsDdRmAhzdkI=
-----END CERTIFICATE-----
